
 Start         Length     Name                   Class
 0001:00000000 000000200H .text                  CODE
 0002:00000000 000000510H .idata                 DATA
 0003:00000000 000008000H .data                  DATA
 0004:00000000 01FFF5000H .bss                   BSS


  Address         Publics by Value

 0001:00000000       start
 0001:00000100       dword_10001100
 0003:00000000       loc_10003000
 0003:00000008       start_0
 0003:00000014       dword_10003014
 0003:00000048       dword_10003048
 0003:0000004C       dword_1000304C
 0003:00000050       dword_10003050
 0003:00000054       dword_10003054
 0003:00000058       dword_10003058
 0003:0000005C       dword_1000305C
 0003:00000060       dword_10003060
 0003:00000064       dword_10003064
 0003:00000070       dword_10003070
 0003:00000074       off_10003074
 0003:00000078       dword_10003078
 0003:0000007C       dword_1000307C
 0003:00000084       off_10003084
 0003:00000088       off_10003088
 0003:0000008C       dword_1000308C
 0003:00000098       dword_10003098
 0003:0000009C       off_1000309C
 0003:000000A0       off_100030A0
 0003:000000A4       dword_100030A4
 0003:000000A8       dword_100030A8
 0003:000000AC       dword_100030AC
 0003:000000B0       off_100030B0
 0003:000000B4       dword_100030B4
 0003:000000C0       dword_100030C0
 0003:000000C4       dword_100030C4
 0003:000000C8       dword_100030C8
 0003:000000CC       dword_100030CC
 0003:000000D0       dword_100030D0
 0003:000000D4       dword_100030D4
 0003:000000D8       dword_100030D8
 0003:000000DC       off_100030DC
 0003:000000E8       off_100030E8
 0003:000000EC       off_100030EC
 0003:000000F0       off_100030F0
 0003:000000F4       off_100030F4
 0003:00000100       off_10003100
 0003:0000011C       off_1000311C
 0003:00000120       off_10003120
 0003:00000124       off_10003124
 0003:00000128       off_10003128
 0003:0000012C       off_1000312C
 0003:00000130       dword_10003130
 0003:00000150       dword_10003150
 0003:00000374       off_10003374
 0003:0000058C       dword_1000358C
 0003:00000750       off_10003750
 0003:00000914       sub_10003914
 0003:00000926       sub_10003926
 0003:00000931       loc_10003931
 0003:00000936       loc_10003936
 0003:0000093F       dword_1000393F
 0003:00000948       dword_10003948
 0003:0000094E       sub_1000394E
 0003:00000968       sub_10003968
 0003:00000982       nullsub_1
 0003:00000983       sub_10003983
 0003:0000098E       loc_1000398E
 0003:000009A2       sub_100039A2
 0003:000009A8       sub_100039A8
 0003:000009B3       loc_100039B3
 0003:000009BB       sub_100039BB
 0003:000009C6       loc_100039C6
 0003:000009D3       sub_100039D3
 0003:000009D9       sub_100039D9
 0003:000009DF       sub_100039DF
 0003:00000A04       sub_10003A04
 0003:00000A33       sub_10003A33
 0003:00000A43       sub_10003A43
 0003:00000A51       loc_10003A51
 0003:00000A57       sub_10003A57
 0003:00000A5D       sub_10003A5D
 0003:00000A73       sub_10003A73
 0003:00000A8E       loc_10003A8E
 0003:00000AA6       sub_10003AA6
 0003:00000AAC       sub_10003AAC
 0003:00000AB3       sub_10003AB3
 0003:00000AD3       sub_10003AD3
 0003:00000AD8       sub_10003AD8
 0003:00000AF1       loc_10003AF1
 0003:00000B35       locret_10003B35
 0003:00000B36       sub_10003B36
 0003:00000B43       sub_10003B43
 0003:00000B5D       sub_10003B5D
 0003:00000B67       sub_10003B67
 0003:00000B92       sub_10003B92
 0003:00000BA2       sub_10003BA2
 0003:00000BB2       loc_10003BB2
 0003:00000BB9       sub_10003BB9
 0003:00000BBB       loc_10003BBB
 0003:00000BC6       sub_10003BC6
 0003:00000BDF       loc_10003BDF
 0003:00000BF2       sub_10003BF2
 0003:00000C11       loc_10003C11
 0003:00000C1D       loc_10003C1D
 0003:00000C42       sub_10003C42
 0003:00000C60       sub_10003C60
 0003:00000C7A       sub_10003C7A
 0003:00000C92       sub_10003C92
 0003:00000C97       loc_10003C97
 0003:00000CAE       sub_10003CAE
 0003:00000CB5       sub_10003CB5
 0003:00000CBC       sub_10003CBC
 0003:00000CC3       loc_10003CC3
 0003:00000CDC       loc_10003CDC
 0003:00000CE7       sub_10003CE7
 0003:00000CFA       sub_10003CFA
 0003:00000D00       loc_10003D00
 0003:00000D0B       sub_10003D0B
 0003:00000D47       loc_10003D47
 0003:00000D4F       loc_10003D4F
 0003:00000D52       sub_10003D52
 0003:00000D58       locret_10003D58
 0003:00000D59       sub_10003D59
 0003:00000D68       locret_10003D68
 0003:00000D69       sub_10003D69
 0003:00000D76       sub_10003D76
 0003:00000D83       loc_10003D83
 0003:00000D98       sub_10003D98
 0003:00000DB1       sub_10003DB1
 0003:00000DC1       loc_10003DC1
 0003:00000DDA       locret_10003DDA
 0003:00000DDB       sub_10003DDB
 0003:00000DE5       loc_10003DE5
 0003:00000DEC       dword_10003DEC
 0003:00000DF7       byte_10003DF7
 0003:00000E66       sub_10003E66
 0003:00000E67       nullsub_2
 0003:00000E68       sub_10003E68
 0003:00000E77       loc_10003E77
 0003:00000E90       loc_10003E90
 0003:00000EA0       sub_10003EA0
 0003:00000EA9       loc_10003EA9
 0003:00000EB0       loc_10003EB0
 0003:00000EB7       sub_10003EB7
 0003:00000EC0       loc_10003EC0
 0003:00000ED5       loc_10003ED5
 0003:00000EDC       sub_10003EDC
 0003:00000EFD       loc_10003EFD
 0003:00000F11       loc_10003F11
 0003:00000F1C       sub_10003F1C
 0003:00000F38       loc_10003F38
 0003:00000F57       sub_10003F57
 0003:00000F75       sub_10003F75
 0003:00000F94       sub_10003F94
 0003:00000FA5       loc_10003FA5
 0003:00000FBD       loc_10003FBD
 0003:00000FD5       loc_10003FD5
 0003:00000FE0       loc_10003FE0
 0003:00000FE3       sub_10003FE3
 0003:00000FF2       sub_10003FF2
 0003:0000101F       sub_1000401F
 0003:0000102E       sub_1000402E
 0003:0000103D       byte_1000403D
 0003:00001047       byte_10004047
 0003:00001048       sub_10004048
 0003:00001061       sub_10004061
 0003:00001077       sub_10004077
 0003:0000109D       locret_1000409D
 0003:0000109E       sub_1000409E
 0003:000010C8       loc_100040C8
 0003:000010CF       loc_100040CF
 0003:000010D6       sub_100040D6
 0003:000010E5       sub_100040E5
 0003:000010F6       word_100040F6
 0003:00001100       dword_10004100
 0003:00001114       locret_10004114
 0003:00001115       byte_10004115
 0003:00001125       sub_10004125
 0003:0000112A       sub_1000412A
 0003:00001138       sub_10004138
 0003:00001144       sub_10004144
 0003:00001156       sub_10004156
 0003:0000115B       loc_1000415B
 0003:0000116A       sub_1000416A
 0003:0000116F       loc_1000416F
 0003:0000117B       loc_1000417B
 0003:00001180       loc_10004180
 0003:0000118F       loc_1000418F
 0003:00001192       sub_10004192
 0003:0000119B       sub_1000419B
 0003:000011B2       loc_100041B2
 0003:000011B7       loc_100041B7
 0003:000011CB       loc_100041CB
 0003:000011D6       loc_100041D6
 0003:000011DE       loc_100041DE
 0003:000011EC       sub_100041EC
 0003:000011FC       sub_100041FC
 0003:00001201       sub_10004201
 0003:00001217       sub_10004217
 0003:0000121C       loc_1000421C
 0003:00001237       locret_10004237
 0003:00001238       sub_10004238
 0003:0000133D       sub_1000433D
 0003:0000134A       locret_1000434A
 0003:0000134B       off_1000434B
 0003:0000134F       off_1000434F
 0003:00001353       sub_10004353
 0003:00001359       sub_10004359
 0003:00001360       off_10004360
 0003:00001388       off_10004388
 0003:0000138C       off_1000438C
 0003:00001398       byte_10004398
 0003:0000139C       off_1000439C
 0003:000013D8       byte_100043D8
 0003:000013D9       sub_100043D9
 0003:000013E5       sub_100043E5
 0003:000013EC       loc_100043EC
 0003:0000140C       loc_1000440C
 0003:00001413       sub_10004413
 0003:00001420       loc_10004420
 0003:00001424       loc_10004424
 0003:00001434       loc_10004434
 0003:0000143F       sub_1000443F
 0003:00001453       sub_10004453
 0003:0000147E       loc_1000447E
 0003:0000148E       loc_1000448E
 0003:000014A7       loc_100044A7
 0003:000014CD       loc_100044CD
 0003:000014D5       loc_100044D5
 0003:000014D8       loc_100044D8
 0003:000014E7       loc_100044E7
 0003:000014FC       loc_100044FC
 0003:00001511       loc_10004511
 0003:0000151E       loc_1000451E
 0003:00001538       sub_10004538
 0003:0000159A       loc_1000459A
 0003:0000159D       loc_1000459D
 0003:000015AD       loc_100045AD
 0003:000015B3       loc_100045B3
 0003:000015C5       loc_100045C5
 0003:000015D7       loc_100045D7
 0003:000015EC       loc_100045EC
 0003:000015FE       loc_100045FE
 0003:0000160E       loc_1000460E
 0003:00001623       sub_10004623
 0003:00001633       loc_10004633
 0003:0000163E       sub_1000463E
 0003:00001651       loc_10004651
 0003:00001661       loc_10004661
 0003:0000166D       sub_1000466D
 0003:00001681       loc_10004681
 0003:00001691       loc_10004691
 0003:00001693       loc_10004693
 0003:000016D7       loc_100046D7
 0003:000016DC       sub_100046DC
 0003:000016E1       sub_100046E1
 0003:000016F0       loc_100046F0
 0003:000016FE       loc_100046FE
 0003:00001706       sub_10004706
 0003:0000171B       loc_1000471B
 0003:00001722       sub_10004722
 0003:00001729       sub_10004729
 0003:00001730       sub_10004730
 0003:00001741       sub_10004741
 0003:00001763       sub_10004763
 0003:00001777       loc_10004777
 0003:00001787       sub_10004787
 0003:000017B6       sub_100047B6
 0003:000017C2       sub_100047C2
 0003:000017D6       sub_100047D6
 0003:000017DE       loc_100047DE
 0003:000017FB       sub_100047FB
 0003:00001807       sub_10004807
 0003:0000180F       loc_1000480F
 0003:0000182A       loc_1000482A
 0003:0000183C       sub_1000483C
 0003:00001861       loc_10004861
 0003:00001864       off_10004864
 0003:000018A4       sub_100048A4
 0003:000018CF       loc_100048CF
 0003:000018E1       loc_100048E1
 0003:00001902       loc_10004902
 0003:0000190E       sub_1000490E
 0003:00001920       dword_10004920
 0003:00001964       byte_10004964
 0003:00001965       sub_10004965
 0003:0000196D       sub_1000496D
 0003:00001973       locret_10004973
 0003:00001974       sub_10004974
 0003:00001987       locret_10004987
 0003:00001988       sub_10004988
 0003:00001990       sub_10004990
 0003:00001998       sub_10004998
 0003:000019A8       locret_100049A8
 0003:000019A9       sub_100049A9
 0003:000019BC       sub_100049BC
 0003:000019C4       sub_100049C4
 0003:000019E4       loc_100049E4
 0003:000019E9       loc_100049E9
 0003:00001A0D       loc_10004A0D
 0003:00001A1E       loc_10004A1E
 0003:00001A2B       loc_10004A2B
 0003:00001A53       locret_10004A53
 0003:00001A54       sub_10004A54
 0003:00001A65       sub_10004A65
 0003:00001A74       loc_10004A74
 0003:00001A89       loc_10004A89
 0003:00001A94       loc_10004A94
 0003:00001AA2       loc_10004AA2
 0003:00001ABD       loc_10004ABD
 0003:00001ACD       loc_10004ACD
 0003:00001AD8       loc_10004AD8
 0003:00001AE7       loc_10004AE7
 0003:00001AFC       loc_10004AFC
 0003:00001AFE       loc_10004AFE
 0003:00001B05       sub_10004B05
 0003:00001B2E       loc_10004B2E
 0003:00001B3E       loc_10004B3E
 0003:00001B40       sub_10004B40
 0003:00001B68       sub_10004B68
 0003:00001B72       sub_10004B72
 0003:00001B76       sub_10004B76
 0003:00001B7A       sub_10004B7A
 0003:00001B7E       sub_10004B7E
 0003:00001B82       sub_10004B82
 0003:00001B86       sub_10004B86
 0003:00001B8A       sub_10004B8A
 0003:00001B8E       sub_10004B8E
 0003:00001B92       sub_10004B92
 0003:00001B94       loc_10004B94
 0003:00001BAA       loc_10004BAA
 0003:00001BB6       sub_10004BB6
 0003:00001BC8       sub_10004BC8
 0003:00001BE0       sub_10004BE0
 0003:00001C16       sub_10004C16
 0003:00001C25       loc_10004C25
 0003:00001C31       loc_10004C31
 0003:00001C4C       off_10004C4C
 0003:00001CAC       off_10004CAC
 0003:00001CBC       dword_10004CBC
 0003:00001CD8       off_10004CD8
 0003:00001CDC       loc_10004CDC
 0003:00001CDF       sub_10004CDF
 0003:00001CF1       loc_10004CF1
 0003:00001CF6       sub_10004CF6
 0003:00001D17       loc_10004D17
 0003:00001D35       loc_10004D35
 0003:00001D44       loc_10004D44
 0003:00001D60       loc_10004D60
 0003:00001D79       byte_10004D79
 0003:00001D7F       loc_10004D7F
 0003:00001D92       loc_10004D92
 0003:00001DBB       sub_10004DBB
 0003:00001DFC       sub_10004DFC
 0003:00001E07       locret_10004E07
 0003:00001E08       sub_10004E08
 0003:00001E25       sub_10004E25
 0003:00001E37       sub_10004E37
 0003:00001E44       dword_10004E44
 0003:00001F44       dword_10004F44
 0003:00001FDB       sub_10004FDB
 0003:00001FE6       sub_10004FE6
 0003:00001FFA       dword_10004FFA
 0003:00001FFE       sub_10004FFE
 0003:0000200A       loc_1000500A
 0003:0000202E       loc_1000502E
 0003:00002046       loc_10005046
 0003:00002052       word_10005052
 0003:0000206A       loc_1000506A
 0003:00002082       loc_10005082
 0003:0000208E       loc_1000508E
 0003:000020B2       loc_100050B2
 0003:000020BE       loc_100050BE
 0003:000020CA       loc_100050CA
 0003:000020E2       loc_100050E2
 0003:000020EE       loc_100050EE
 0003:000020FA       loc_100050FA
 0003:00002106       loc_10005106
 0003:00002112       loc_10005112
 0003:0000211E       loc_1000511E
 0003:0000214E       loc_1000514E
 0003:0000215A       loc_1000515A
 0003:000021AE       loc_100051AE
 0003:000021BA       loc_100051BA
 0003:000021DE       dword_100051DE
 0003:000021E2       sub_100051E2
 0003:000021F8       sub_100051F8
 0003:00002211       sub_10005211
 0003:00002214       loc_10005214
 0003:00002224       loc_10005224
 0003:00002226       sub_10005226
 0003:00002239       sub_10005239
 0003:0000224A       sub_1000524A
 0003:00002257       byte_10005257
 0003:00002267       sub_10005267
 0003:0000226F       loc_1000526F
 0003:0000228E       loc_1000528E
 0003:000022C3       sub_100052C3
 0003:000022D8       loc_100052D8
 0003:000022EF       loc_100052EF
 0003:000022F5       sub_100052F5
 0003:00002301       aErrorInSystemO
 0003:0000231F       sub_1000531F
 0003:00002337       locret_10005337
 0003:00002338       aWin32ApiError
 0003:0000234A       sub_1000534A
 0003:00002397       locret_10005397
 0003:00002398       sub_10005398
 0003:000023B5       sub_100053B5
 0003:000023E5       sub_100053E5
 0003:000023FE       dword_100053FE
 0003:00002402       word_10005402
 0003:00002410       loc_10005410
 0003:0000247D       byte_1000547D
 0003:0000248B       loc_1000548B
 0003:000024F8       dword_100054F8
 0003:00002504       dword_10005504
 0003:00002510       sub_10005510
 0003:00002527       sub_10005527
 0003:00002538       loc_10005538
 0003:00002542       sub_10005542
 0003:00002553       loc_10005553
 0003:0000255D       sub_1000555D
 0003:0000256C       sub_1000556C
 0003:0000257B       byte_1000557B
 0003:00002587       sub_10005587
 0003:000025AC       aOpeningOkadLog
 0003:0000260C       loc_1000560C
 0003:00002626       loc_10005626
 0003:0000263A       sub_1000563A
 0003:00002658       sub_10005658
 0003:00002663       sub_10005663
 0003:00002672       sub_10005672
 0003:000026A3       sub_100056A3
 0003:000026D9       loc_100056D9
 0003:000026EA       sub_100056EA
 0003:000026F5       sub_100056F5
 0003:000026FC       dword_100056FC
 0003:00002700       dword_10005700
 0003:00002704       dword_10005704
 0003:00002708       dword_10005708
 0003:0000270C       sub_1000570C
 0003:00002743       sub_10005743
 0003:00002774       sub_10005774
 0003:000027A1       sub_100057A1
 0003:000027B6       sub_100057B6
 0003:000027F1       sub_100057F1
 0003:00002814       sub_10005814
 0003:00002837       sub_10005837
 0003:00002852       dword_10005852
 0003:00002856       dword_10005856
 0003:0000285A       dword_1000585A
 0003:0000285E       dword_1000585E
 0003:0000287A       word_1000587A
 0003:00002886       aOneTimeOperati
 0003:0000289C       loc_1000589C
 0003:0000318D       loc_1000618D
 0003:0000319B       loc_1000619B
 0003:000031A4       dword_100061A4
 0003:000031A8       aCfwin
 0003:000031AE       a0
 0003:00003218       dword_10006218
 0003:0000321C       aColorforth
 0003:00003227       aNa
 0003:00003276       word_10006276
 0003:00003328       sub_10006328
 0003:0000334C       sub_1000634C
 0003:0000336F       loc_1000636F
 0003:00003374       loc_10006374
 0003:00003377       aQuitMsgReceive
 0003:0000338A       loc_1000638A
 0003:0000339A       loc_1000639A
 0003:000033A5       unk_100063A5
 0003:000033D0       loc_100063D0
 0003:000033DD       loc_100063DD
 0003:000033E1       unk_100063E1
 0003:0000341C       loc_1000641C
 0003:0000342C       loc_1000642C
 0003:0000343B       dword_1000643B
 0003:00003440       loc_10006440
 0003:00003449       dword_10006449
 0003:0000344D       dword_1000644D
 0003:00003454       loc_10006454
 0003:0000346C       loc_1000646C
 0003:000034BB       dword_100064BB
 0003:000034BF       dword_100064BF
 0003:000034C3       unk_100064C3
 0003:00003504       loc_10006504
 0003:00003520       loc_10006520
 0003:00003598       loc_10006598
 0003:000035B6       loc_100065B6
 0003:000035D8       loc_100065D8
 0003:000035E0       loc_100065E0
 0003:000035E4       loc_100065E4
 0003:000035F4       loc_100065F4
 0003:000035FC       loc_100065FC
 0003:00003603       byte_10006603
 0003:0000360B       dword_1000660B
 0003:0000360F       dword_1000660F
 0003:00003613       sub_10006613
 0003:0000365F       sub_1000665F
 0003:00003665       sub_10006665
 0003:0000366F       byte_1000666F
 0003:0000376F       sub_1000676F
 0003:00003774       loc_10006774
 0003:000037A0       loc_100067A0
 0003:0000380A       sub_1000680A
 0003:0000383C       loc_1000683C
 0003:00003848       loc_10006848
 0003:0000385F       unk_1000685F
 0003:000039FB       loc_100069FB
 0003:00003A09       loc_10006A09
 0003:00003A1A       loc_10006A1A
 0003:00003A37       loc_10006A37
 0003:00003A4E       loc_10006A4E
 0003:00003A54       sub_10006A54
 0003:00003A5F       sub_10006A5F
 0003:00003A90       loc_10006A90
 0003:00003AA6       loc_10006AA6
 0003:00003AE0       dword_10006AE0
 0003:00003AF8       dword_10006AF8
 0003:00003BC4       dword_10006BC4
 0003:00003BC8       dword_10006BC8
 0003:00003BF0       dword_10006BF0
 0003:00003BFC       loc_10006BFC
 0003:00003C44       loc_10006C44
 0003:00003C6B       loc_10006C6B
 0003:00003CA5       loc_10006CA5
 0003:00003CAC       sub_10006CAC
 0003:00003CC9       nullsub_3
 0003:00003CCC       nullsub_4
 0003:00003CD4       loc_10006CD4
 0003:00003CD9       loc_10006CD9
 0003:00003D6F       loc_10006D6F
 0003:00003D81       sub_10006D81
 0003:00003D9A       dword_10006D9A
 0003:00003D9E       word_10006D9E
 0003:00003DD6       sub_10006DD6
 0003:00003E3E       start_0_0
 0003:00003EB4       loc_10006EB4
 0003:00003EEC       sub_10006EEC
 0003:00003EF7       sub_10006EF7
 0003:00003F02       sub_10006F02
 0003:00003F0D       sub_10006F0D
 0003:00003F18       sub_10006F18
 0003:00003F23       sub_10006F23
 0003:00003F2E       sub_10006F2E
 0003:00003F39       sub_10006F39
 0003:00003F44       sub_10006F44
 0003:00003F4F       sub_10006F4F
 0003:00003F5A       sub_10006F5A
 0003:00003F65       sub_10006F65
 0003:00003F70       sub_10006F70
 0003:00003F7B       sub_10006F7B
 0003:00003F86       sub_10006F86
 0003:00003F91       sub_10006F91
 0003:00003F9C       sub_10006F9C
 0003:00003FA7       sub_10006FA7
 0003:00003FB2       sub_10006FB2
 0003:00003FBD       sub_10006FBD
 0003:00003FC8       sub_10006FC8
 0003:00003FD3       sub_10006FD3
 0003:00003FDE       sub_10006FDE

Program entry point at 0001:00000000
